35 add hoisin sauce and peanut butter
37 add sugar water garlic powder
44 add fish sauce
45 add lime
47 add chopped garlic
48 add fresh chuilli peppers
52 add cooked vermicelli noodles
54 take tofu bean sprouts
55 take lettuce sawtooth coriander mint and cilantro
56 boil shrimp cut shrimp tofu
58 place rice paper
60 add noodles veggies vietnamese ham slice shrimp
61 put tofu on ham
64 put lettuce
65 add cilantro
68 add ham slice tofu
69 add shrimp veggies
117 cut potatoes into quarters
119 rinse potatoes thoroughly
124 drain potatoes dump potaoes into cold water
125 add salt
126 boil potatoes
127 simmer potatoes
131 cut butter
138 check potatoes
142 drain potatoes
146 heat pan
148 mash potatoes
154 dump in salt pepper
162 whisk mixture
166 add milk
167 microwave mixture
169 whip mixture
173 need salt cayenne
175 transfer mashed potatoes to bowl add chives
191 clean prawns
192 cut prawns
196 add prawns to bowl add fish sauce soy sauce
197 add teriyaki sauce sesame oil garlic
198 marinate prawns
199 mix flour water
201 fry tempura prawns
203 dip into bread crumbs deep fry prawns
211 mix up onions peppers sellers in pot
212 add half teaspoon of bay leaf
213 stir vegetables add raw onions
215 mix everything add clam juice
218 reduce heat to medium add clams
224 mix clam chowder
225 add milk
231 mix clam chowder
232 add flour
239 stir clam chowder
243 add two teaspoons of worcestershire sauce
247 add hot sauce
252 mix clam chowder
254 add salt black peppercorn close lid
303 take out broiling pan
304 put foil underneath pan
306 line galbi up in pan
311 stick rice greens meat in broiler
490 take chicken
496 add garlic cloves sesame seed oil
498 add fish sauce
501 add salt and mix
502 marinate chicken
503 refrigerate chicken
504 cut carrots
506 add rice wine vinegar to carrots
516 place chicken on stove
537 cut bread
541 place chicken on bread
544 add cilantro
545 add pickled carrots
743 take bell pepper onions
744 take mushroom beef olive oil
745 dice mushroom
747 cut onion chunks
749 add crush garlic red pepper
750 marinate the mixture
751 add oil pepper salt parsley minced onion crushed red pepper spice
762 put skweres on grill
772 open lid
919 take one head cauliflower
920 take one cucumber cherry tomatoes lemon juice
921 take oilive oil minced garlic chopped scallions parsley chopped mint sea salt black pepper
923 put cauliflower in food procesor
928 add all ingredients
931 add cucunber cherry tomatoes chopped scallions
933 take chopped mint parsley minces garlic
934 take sea salt
935 toss the mixture add black pepper
936 add lemon juice
938 add olive oil
941 toss all ingredients
1041 mix rice flour and maida
1043 mix suji into flour mixture
1044 add leaves
1046 add salt cumin seeds
1047 add hing
1050 add water
1051 add cginger
1052 add green chilies
1053 mix ingredients together
1055 leave the batter for hours add black pepepr
1056 add grated coconut
1057 mix ingredients together
1058 add milk
1063 heat pan add spread oil to pan spread batter
1066 apply oil to edges
1070 put potatoes onto middle of dosa
1301 steam cabbage
1305 add butter
1306 drain ingredients
1307 add cream
1309 add green onions
1383 heat cast iron skillet fry bacon
1388 remove bacon from skillet add diced celery onions and butter to pot
1389 add quarter cup of cornstarch
1391 stir cornstarch into butter mixture
1394 add cup of half and half
1424 throw in some sea salt
1430 put bacon in clam chowder
1471 add sugaryeast salt to warm water
1474 add oil
1477 keep dough in greased bowl
1479 cover dough
1481 punch dough shape into small portions
1483 take garlic
1484 add coriander
1485 add butter
1488 heat pan
1490 roll dough
1491 come in garlic
1492 roll dough
1493 flip dough add water to downside of naan
1494 cook dough
1918 chop onion
1925 add oil and ground beef to pan
1927 cook for five minutes
1928 add onion
1930 cook for five minutes at medium heat
1932 season beef
1940 add cornstarch
1942 simmer for ten minutes
1977 cut cabbage
1982 submerge in water
1985 leave it
1991 add salt
1993 sit cabbage
1994 work salt
1997 toss cabbage
2000 squeeze cabbage
2007 add water
2008 submerge cabbage
2017 place sauerkraut in ziplock bag
2019 let air out
2024 place dish towel over water
2217 microwave butter
2220 combine dry ingredients
2221 beat eggs into milk
2222 whisk butter into mixture
2223 let mixture sit
2225 mix milk egg and flour
2227 add vanilla extract
2228 preheat griddle
2231 season griddle
2236 spread pancake batter in pan
2240 turn pancake over
2291 boil salted water
2292 add fusilli pasta
2293 cook pasta
2295 add pasta cherry tomatoes
2296 add cheese salami pepperoni
2297 add green pepper black olives pimientos
2298 toss mixture
2301 add two cups of water to pot
2302 add two beef stock cubes
2303 dissolve beef stock cubes
2305 heat up olive oil in pan
2307 season beef with salt
2311 add pepper
2313 add meat to pan
2315 take meat out of pan
2316 add half an onion
2317 add garlic ginger chili
2319 mix brown onions
2320 add japanese barbecue sauce
2322 mix sauce in let cook
2323 put noodles into stock
2325 cut beef into thin slices
2329 place soup and noodles into bowl
2330 place meat on one side of bowl
2331 spoon garlicbarbecueonion mixture on top of beef add spring onions
2341 bring broth up to boil add in soy sauce sesame oil white onion bok choy stir and cook for minutes add chicken noodles cook for an additional minutes serve with scallions on top
2342 put wok on high heat add olive oil white onions bok choy stir add garlic
2343 goes in noodles
2344 put in sprouts stir sprouts
2345 add sauce cook stir mixture
2412 cook pasta
2413 add sweet corn
2415 add spring onion green pepper yellow pepper red pepper salt
2419 add salad cream
2421 mix ingredients
2626 drain water from tofu
2627 put tofu on paper towel and stack heavy object on it
2629 chop green onion shred carrot
2641 combine egg white
2642 add green onion and duck sauce
2643 add broccoli slaw and water
2644 mix mixture
2646 add tofu
2648 add filling into the center
2649 moisten edge with water
2650 pick and pinch tofu
2656 press on flower sheet
2662 place pot stickers on tray
2664 heat oil add pot stickers
2665 cook pot stickers
2666 press down pot stickers
2668 add water
2669 cook pot stickers
2672 remove cover until water evaporates
2673 cook the bottoms of pot stickers
2681 remove and put on cooling rack
2685 add water
2686 add vinegar and soy sauce
2693 add sesame oil
2695 add red pepper
2696 whisk mixture
2697 add oil to thicken
2797 take oil
2798 take vegetables
2805 take deep fat thermometer
2806 heat oil
2812 cut the joint chicken wing
2813 bend the joint
2829 deep fry wings
2835 transfer wings to wire rack
2841 take red sauce
2843 simmer red sauce
2845 add butter
2847 add unslated butter
2851 turn off heat
2853 put chciken wings in bowl
2856 add sauce into bowl
2857 toss the wings
2860 take some blue cheese lemon salt and pepper
2866 put low flame add peanut oil
2868 cut red chilli peppers
2873 stir peppers
2878 add sichuan peppercorn
2881 add spicy bean paste
2885 add green onion add pork
2886 add chopped ginger and garlic
2887 add silken tofu
2891 make slurry
2892 take chicken stock cornstarch
2895 add oil
2899 put garlic ginger
2900 add sichuan pepper
2906 increase heat
2908 add pork
2912 add spicy bean paste
2915 increase heat
2925 add chilli oil
2927 add tofu
2932 put green onion
2943 fry onion garlic
2948 chop add the potatoes
2960 squeeze tomatoes
2962 add tomatoes
2980 pour chicken stock into pot
2990 add basil
2996 add salt
2999 blend mixture
3010 add cheese
3532 rinse escargot under cool water
3537 pat escargot dry
3542 press garlic
3549 add chives salt white pepper
3552 add sherry
3578 cook escargot
3670 take boiling water
3679 take cucumber
3681 take grape tomatoes
3683 take grated carrot green onion
3686 take fresh mint fresh parsley
3688 add dried herbs
3700 take lemon zest leons juice olive oil sea salt ground black pepper
3834 slice celery
3835 slice shikara mushroom
3841 dice potato
3842 chop sun dried tomatoes
3843 shred cabbage
3845 heat pan
3846 add olive oil to pan
3847 add onions carrots mushroom celery
3848 add ham
3849 add potatoes cauliflower tomatoes cabbage
3850 add salt add pepper cook vegetables
3853 add dried herbs
3855 add dried basil
3857 cook soup
3860 add tomatoes add peas stir mixture
3861 add chicken stock
3862 add parmesan rind
3863 cook mixture in oven
3868 add water place mixture back in oven
3895 lay down tomato sauce
3898 leave half an inch around pizza
3902 lay down cheese
3907 lay basil down
3909 press basil down
3912 pop pizza in oven
3918 keep it on pizza stone
4011 put butter in pan
4012 melt butter
4014 add milk
4016 whisk in salt pepper
4018 add egg yolk mix eggs
4023 place in bread
4024 add sauce
4025 add pepper
4033 add cheese on top
4151 drain garbanzo beans
4152 put garbanzo beans into food processor
4155 add onions garlic
4157 add spices cayenne
4158 add baking powder
4159 add cilantro parsley
4160 add rest of the beans
4162 grind mixture
4166 push down mixture
4167 pulse mixture
4169 add bread crumbs
4172 place mixture into bowl
4175 add lemon juice
4179 scoop falafel mixture
4183 brush some olive oil
4184 place falafel in oven
4188 flip falafels
4300 put the pancetta in
4304 sweat and saute pancetta
4306 have carrots celery and onions
4311 have dried basil oregano and marjoram
4312 add and stir chopped garlic
4314 add bay leaf
4317 throw white wine in
4320 bring up heat reduce liquid
4325 add soak beans
4334 pour in chicken stockbroth
4335 bring heat up to boil
4355 cook for seventeen minutes
4363 stir in canned tomatoes
4366 turn on the heat leave pressure cooker uncovered
4369 cook pasta
4441 add parsley
4450 make tomato sauce
4452 add meatball to boiling water
4462 boil potatoes
4465 cut cabbage
4471 cook cabbage
4473 mash potatoes
4477 add cabbage to potato
4482 pour in milk
4484 bring mixture to the boil
4489 mix with electric mixer
4494 put in butter
4663 mix sugar saki beef stock hot chilli oil
4665 add soy sauce
4671 cook chicken
4677 add onions to chicken
4678 add white peper salt chicken seasoning
4679 add mushroom garlic cook vegetables
4680 add bean sprouts
4681 add precooked noodles
4687 add mail
4689 add kutsal
4690 garnish with green onions beni shoga
4825 take sushi rice avocado surimi mayonnaise cucumber
4826 take nori
4828 wet your hand
4829 spread rice
4839 spread mayo
4840 take avocado
4843 take crab
4845 add cucumber
4846 fold the sheet
4856 take the blade
4857 cut sushi into three
4913 melt butter in pan
4915 take bread sticks
4916 put bread in pan
4917 take cheddar cheese
4918 place mozzarella cheese over cheddar cheese
4919 take pizza sauce
4922 spread pizza sauce
4923 take pepperoni
4924 place mozzarella pepperoni over the sauce
4926 add mushroom onion black olive
4928 heat the sandwich
4958 add garlic ginger
4959 add seaweed
4962 take plum paste
4963 take curry powder
4971 blend the ingrediants
4972 add cayenne
4975 add frankie coconut oil
4979 garnish with parsley
5026 add water to pot
5027 add salt boil water
5033 mix olive oil
5035 heat pan
5036 melt butter
5037 add flour cook mixture
5040 add milk whisk bechmel sauce
5044 cook mixture
5045 turn off heat set mixture aside
5051 add black pepper
5053 add salt
5055 add cheese
5056 stir mixture
5057 take pasta
5061 add creamy sauce to pasta
5063 mix pasta
5068 add sauce
5069 add bread crumbs bake pasta
5233 take channa
5234 pressure cook channa with water
5237 add cinnamon
5238 add cardamom star anise cumin seeds onions
5239 increase flame
5241 add ginger garlic paste
5247 add tomatoes
5257 add garam masala
5259 add salt
5261 add coriander powder
5262 add chilli powder ginger powder
5264 cook mixture
5265 cover mixture
5271 add carom seeds
5274 add pomegranate seeds
5277 add mango powder
5279 add chili
5292 mix mixture
5293 lower flame
5295 add kasoori methi
5296 crush leaves
5299 cover mixture
5313 put off flame
5321 dress chicken with olive oil salt pepper italian seasoning granulated garlic granulated onion and crushed pepper flakes
5324 place in refrigerator
5333 get main burners lit
5334 heat up tomato sauce sear the chicken
5335 transfer tomato sauce into pan
5336 transfer chicken breast over into sauce
5338 move the pan to the center of the grill
5339 close lid cook for about minutes
5343 serve on top of spaghetti top with parmesan cheese
5462 take water
5463 add salt
5464 add macaroni drain pasta
5465 mix cheddar american cheese
5467 add eggs
5468 add evaporated milk
5469 add half and half
5470 add salt
5472 add white pepper
5474 stir mixture
5475 add cooked macaroni
5479 spray baking dish
5481 add macaroni mixture
5487 bake macaroni
5669 take cheek bezoar gabon sabines garlic lemon juice tahini roasted red peppers
5670 take ground cumin salt cayenne pepper
5673 cut garlic and roasted red peppers
5674 blend cheakpeas
5675 add spcies into blender
5818 add milk egg
5819 whisk ingredients
5820 rest ingredients
5821 get salt in
5822 adf flour
5823 add oil baking powder cornmeal
5825 heat oil
5829 drain corndogs
5830 cut hotdogs
5831 insert sticks into hotdogs
5834 dip hotdogs in batter
5842 place in oil
5846 take corndogs out of oil
5858 drain corndogs
5859 serve corndogs with mustard
5910 slice loaf
5911 put in oven
5916 preheat non stick pan
5917 fry duck
5918 toast loaf
5919 spread goat cheese
5923 dont want rasberry coulis
5926 put duck on toast
5930 put fig vinegar
5931 add berries olive oil pepper and salt
6000 add capsicum
6001 add black pepper salt
6003 refrigerate ingredients
6427 place pork chops in saran wrap
6429 pound meat season with salt pepper
6431 crack whisk egg put flower on plate
6433 batter pork chops with flour egg bread crumbs
6439 put pork chops in hot oil
6440 flip pork chops
6441 peel potatoes
6442 boil potatoes
6443 remove cool potatoes
6445 grade potatos make hole for flour and egg
6446 mix with spatula
6447 add salt knead dough
6454 roll dough into dumplings
6455 throw dumplings in boiling water
6456 drain water
6457 season with black pepper basil
6467 add pinch of salt
6468 cut potatoes cook potatoes add potatoes to pot
6469 peel garlic chop garlic
6470 drain water add potatoes to mixing bowl stir potatoes
6472 add romano cheese garlic salt oregano
6782 put salt on tenderloins
6783 put pepper on tenderloins
6784 add red pepper to parmesan cheese
6785 add paprika
6786 mix cheese red peppers paprika
6792 crack eggs add heavy cream water
6793 beat mixture
6797 coat pork in cheese dip it in mixutre put in pork rinds
6798 lay on pan
6804 layer pork cutlets into fryer
6809 get excess oil off
6810 cool on paperlined plate
7126 put beef in ziplock bag
7132 squeeze citrus into marinade
7134 add oranges to bag
7135 massage ingredients
7140 refrigerate bag
7142 sear beef
7146 cook for two minutes
7150 turn beef over
7152 set beef aside
7153 cook rest of beef
7164 chop into small pieces
7174 add guacamole
7175 add lettuce onions and cheese
7178 add tomato
7277 beat egg add ice cold water add flour
7278 mix ingredients
7279 press shrimp
7280 dip shrimp into tempura batter
7281 drop shrimp into hot oil
7398 put the potatoes into cold water
7402 split eggs
7403 got egg yolk
7404 add english mustard white wine vinegar
7406 hold the mixing bowl in place
7407 slowly add oil
7415 chop capers gherkins and herbs
7416 add capers gherkins and herbs to mayonnaise
7418 add salt and pepper
7419 taste tartar sauce get sauce in the fridge
7420 check chips by inserting knife
7421 drain potatoes put potatoes on tray to cool
7426 add flavour crumble in fresh yeast
7428 add beer
7431 add salt pepper
7432 cover with tea towel leave for ten minutes
7439 skin the fish
7454 cut out bones
7458 get chips into fryer
7462 pass cod fillet through flour
7463 place cod fillet into batter
7464 drain chips
7465 put cod in fryer
7467 put chips back in fryer
7469 add salt drain peas wedge lemon serve with tartar sauce
7688 add lemongrass
7696 add tumeric
7697 add curry powder
7703 bring mixture together
7704 add oil
7708 keep bringing sides of the mixture down
7720 store mixture in jar
7721 refrigerate mixture
7781 cut eggs
7787 grate ginger
8021 take pan
8022 take fermented soybean puree
8027 take chopped chili ginger
8034 take tender stem broccoli
8041 add spices ginger lime
8046 boil broccoli
8053 rub sesame seed oil
8133 take chicken
8135 add cumin powder coriander powder
8136 add garam masala oil
8139 add salt
8144 set chicken aside
8145 mix mixture
8154 add onion to pan
8157 add ginger garlic paste
8159 add cinnamon sticks pepper gloves mustard seeds
8162 cook mixture
8163 stir mixture
8174 mix tomato puree
8177 add chicken to curry
8180 add water to chicken curry
8185 cover pan
8188 add more water cook curry
8252 mix corn flour guar gum baking soda flour paprika powder pepper turmeric soy milk
8253 make dough
8254 cut tofu
8255 stick pins into tofu
8256 put dough on tofu
8258 fry tofu
8344 grate potatoes
8345 mix ingredients together
8347 add flour
8349 heat oil in skillet
8351 bake pancakes for minutes
8352 fry pancakes on other side
8479 add oil and sugar
8481 add sugarsmgmsg pork powder
8484 add eggs
8486 add carrots and onions to rice
8487 add soy sauce
8492 mix together
8493 add garlic
8561 marinate calamari in olive oilthyme salt garlic
8568 melon ball potatoes
8570 add potatoes to water
8572 put ume plum paste
8577 add soy sauce rice wine vinegar
8578 add pinot noir
8579 add mirin sesame paste pomegranate molasses
8580 whisk in sesame oil
8582 add olive oil
8586 add calamari on pan
8588 flip calamari
8589 add cherries
8591 brown potatoes in butter
8592 add salt on potatoes
8594 chop up calamari
8595 put cherries in bowl
8596 add potatoes toss salad
8788 marinate chicken
8792 add juice rice vinegarchicken stockginger garlic pastebarbecue sauce
8793 add chili sauce
8794 add soy saucefish saucehoisin sauceworcester sauce and olive oil
8797 mix sauce together
8798 fry chicken
8801 cook for five minutes
8802 take chicken out pan
8804 cook sauce until boiling
8807 cut celery
8808 add onions
8865 add chicken broth to pan
8870 boil chicken broth
8872 add chicken tenderloin to soup
8882 add chicken tenderloins to soup cook chicken tenderloins
8886 add pasta
8887 add vegetables
8888 cook mixture
8892 take tenderloins out chop tenderloins
8896 put tenderloins back into soup
8907 add spinach
8915 turn off flame
8916 add black pepper
8983 take italian sausage
8990 add egg
8991 add italian bread crumb
8992 add onion powder
8993 add garlic powder and salt
8996 mix spices
8997 flatten the mixture
8999 add pepper
9000 spread the pepper
9003 put mixture in refrigerator
9007 spray canola oil in pan
9008 make meatballs
9011 put meatballs in oven
9012 take meatballs out
9016 transfer meatballs to skillet
9074 distribute flour through calamari
9077 get off extra flour
9079 put calamari on plate
9087 sprinkle with salt
9088 put on platter serve with sauce lemon wedges
9425 chop onion
9427 heat pan
9429 add butter
9431 add olive oil
9432 cook onion
9434 take out the tomato seeds
9436 chop seeds
9449 add vegetable broth
9452 add salt
9453 cover with lid
9467 chop roasted bell peppers
9471 add roasted bell peppers
9474 blend mixture
9476 add powder
9477 add paprika
9478 add brown sugar
9487 add heavy cream
9489 add parsley or cilantro
9692 heat oilghee add cashew nuts fry until golden brown
9693 remove keep aside cashew nuts
9694 add fry mustard seeds cumin seeds chana dal
9695 add fry onions and curry leaves
9697 add fry chopped green chilies and ginger
9698 add fry tumeric powder and asafortida add mix boiled potatoes
9699 add salt fried cashew nuts cook and stir mixture
9702 add mix chopped coriander
9706 heat nonstick pan with oil spread the oil evenly
9707 pour spoonful of dosa batter on pan spread in circular manner
9708 add the potato masala let it cook until crispy
9709 cover the dosa in half let it cook until crispy
9959 detach wings
9965 prepare chicken pieces
9971 add salt
9975 preheat oil in skillet
9977 add butter
9987 add flour to ziplock bag
9995 shake flour
10007 add peper
10016 turn over chicken
10022 fry for ten minutes
10033 drain chicken
10307 chop fish into filletsized pieces
10314 dump beer into bowl
10318 dump in half teaspoon of salt
10319 add flour
10321 crank deep fryer
10324 add two tablespoons of cornstarch
10326 coat fish in flour dump in batter
10327 put fish into deep fryer
10391 add flour
10392 add semolina salt
10393 add sugar baking soda
10394 add yogurt
10395 add water
10398 knead dough
10404 add oil
10405 let dough rest
10408 add oil to pressure cooker
10410 add onion
10411 cook onion
10412 add ginger garlic paste
10413 cook mixture
10415 add homemade spice mixture
10416 add channa cook mixture
10417 add tomatoes
10418 add water
10419 add red chilli powder
10420 cook mixture
10423 add chickpeas
10424 add water
10428 let pressure cooker whistle
10436 store in small bowls
10461 blend the garlic shallots ginger
10462 add cornstarch
10463 add vegetable oil oyster sauce
10465 add sauce pepper
10466 prcoess ingredients into paste
10471 add water to the seasoning mix marinade pork
10477 soak the shiitake mushrooms in hot water
10478 add bones salt vinegar to pot of boiling water
10479 drain pot
10480 wash bones clean
10481 return bones in clean pot
10482 add salt
10483 cut onion radish
10485 take mushrooms
10486 prepare wrappers
10489 scoop paste
10490 fold wrapper into triangle pinch edges together
10495 cut char sui pork into slices boil egg noodles
10496 transfer noodles into serving bowl toss with sesame oil
10497 blanch bean sprouts bok choy
10498 place garlic chives on top of noodles
10499 ladle hot soup over top with chinese celery green onions
10573 place dough in caputo flour
10575 flip dough
10579 sprinkle the surface
10580 squish dough with palm flatten center
10582 dimple the rest of pizza move the pizza around
10583 stretch doughrotate dough
10589 pick up dough and let it hang on backs of knuckles
10595 put it onto pizza peel put sauce on it
10599 put cheese on
10607 put on fresh basil
10613 place pizza in oven give it shake
10620 rotate pizza every seconds
10630 put extra vigrin olive oil on
10631 cut the pizza
11324 place bacon strip on pan
11325 fold bacon
11326 add bacon strips flip bacon strips over
11327 pull sides of bacon strips
11328 place bacon strips into formation
11331 fold bacon strips
11343 fold ends of bacon strip over
11351 cook bacon strips
11353 throw on cheese
11355 cover pan
11356 fold sandwich place it on plate
11623 cut proms
11628 wash under cold water
11629 cut cucumber
11631 wash vegetables drain vegetables
11632 dip rice paper
11634 place vegetables cucumber slice pork slices shrimp halves
11640 take peanut butter hoisin sauce garlic
11641 add oil
11642 add garlic
11643 add broth peanut butter sugar simmer the sauce top it up with chilli crushed peanut
11743 melt four ounces of butter add garlic
11744 stir garlic
11746 add onions celery and spices
11747 cover quahogs with water
11748 strain and stir the quahogs
11749 lower the flame add flour
11750 cook for five minutes add broth keep stir
11751 cook for another ten minutes
11752 add quahogs redskin potatoes
11754 add cream
11755 ladle out the chowder
11875 take kosher salt
11876 sprinkle kosher salt black pepper on chicken
11877 season chicken
11879 take garlic powder
11880 add onion powder
11882 add unsalted butter
11885 wash chciken
11887 drain on paper towel
11892 sprinkle garlic powder
11906 pour hot sauce on chicken
11909 add wings to hot sauce
12179 crack egg into boiling water
12184 place smoked salmon on bagel
12188 place tomato on salmon
12193 cut avocado place avocado on bagel
12195 add egg on bagel
12198 add butter to hollandaise
12199 add lemon
12200 add salt pepper
12201 whisk hollandaise
12202 drizzle hollandaise over bagel
12206 garnish with basil
12238 dip chicken into the egg and bread crumbs
12248 spoon olive oil over top of chicken
12253 sprinkle salt on chicken
12258 spoon tomato sauce into center of chicken breast
12263 put cheese on top of chicken
12265 cover pyrex with foil
12266 put chicken parmesan in oven
12281 add vegetables
12283 turn off router
12285 add kosher salt
12286 massage salt on vegetables
12292 add ginger garlic
12295 add korean red pepper powder
12299 add brown sugarrice vinegar
12300 make creamy paste
12302 add roasted sesame seeds
12423 take salt and pepper onion scallion
12424 take tomatoes
12429 take lemon juice parsley
12430 take extra vergin olive oil
12432 add boiling water
12434 put ingredients in bowl
12446 add onions chopped tomatoes
12447 add salt and pepper olive oil
12448 squeeze lemon juice
12450 toss the mixture
12482 add butter to pan
12485 add salt and pepper to eggs
12492 bring mixture to centre
12498 flips over eggs
12501 add veggies
12511 add parsley
12528 take sugar
12529 take bourbon
12530 take glasses ice
12531 add sugar in glass
12538 add ice cubes
12560 take olive oil
12561 add garlic tomatoes
12574 pour vodkacream
12575 boil vodka
12577 add chicken cutlet to pan
12578 reduce the heat cover pan cook cutlet
12579 mix pasta with sauce
12584 cut up chicken
12585 season chicken and coat in flour
12588 oil skillet
12589 fry at degrees
12590 fry for minutes
12594 drain chicken
12596 season chicken
12704 cut onions chop onions
12705 peel ends of carrot peel carrots
12708 fry onions in pan
12709 add worchestshire sauce beef stock
12711 pour water
12712 stir mixture simmer mixture
12713 chop potatoes boil potatoes
12714 strain potatoes
12715 pour milk to potatoes
12716 simmer potato mixture
12718 stir potato mixture
12721 leave meat sauce into dish
12722 spread mashed potato mixture on meat sauce
12723 flatten mixture
12724 draw lines on mixture
12726 crush salted crisps
12727 sprinkle cheese on cottage pie
12728 put cottage pie in oven
12879 mix soy sauce spicy sauce with sugar
13261 take sliced cucumber crab stick avocado sliced tomago
13263 place japanese sushi rice on makezu
13264 spread nori seaweed
13265 spread rice on nori seaweed
13266 flip the side
13267 spread mayonnaise on seaweed
13272 spread caviar on roll
13273 put sesame seeds
13275 take knife
13276 cut sushi roll
13290 cut shrimp
13291 add cooking oil add pork add shrimp
13292 season with sugar and soy
13293 add chinese chives salmon balck pepper sesame oil
13294 put filling
13295 wrap both sides
13296 deep fry spring roll
13315 stretch the dough add shredded mozzarella cheese
13316 put chopped tomato and tomato sauce into oven
13319 finish with more cheese fresh basil
13410 mix bread crumbs parmesan cheese and panko
13411 put chicken cutlet into egg then coat it in cheese and bread crumb mixture
13414 fry chicken cutlets
13416 put cutlass on paper towels
13417 put cutlets on cookie sheet
13419 put marinade on chicken
13423 put mozzarella cheese slices on top of chicken
13425 put chicken into oven
13708 take garlic rosemary
13709 remove chicken skin pile rosemary leaves
13720 grill the chicken
13725 take lemon orange
13730 squeeze lemon orange
13731 add salt and pepper
13736 add olive oil
13739 marinade chicken
13740 keep the chicken in fridge
13741 take chicken out
13747 put chicken on grill pan
13749 take red onion
13750 cut onions in cubes
13752 take zucchini and peppers
13762 add onion
13772 add olive oil
13779 put heat on medium low
13786 add honey
13787 add lemon rosemery garlic
13926 cut tuna
14305 put them in squares fry untill golden brown
14306 brown pita bread
14308 wash romaine lettuce
14315 place lettuce in bowl
14320 place mixture in fridge
14322 mix salad
14558 soak chick peas
14566 drain chick peas
14567 chop onions garlic green pepper
14568 grind ingredients
14571 season ingredients
14572 add baking powder
14574 add coriander salt
14576 add red pepper
14578 mix ingredients
14582 rest mixture
14590 make falafel patties
14592 smooth falafel surface
14601 add oil to wok
14602 add grape seed oil
14614 reduce temperature
14615 drop falafel into oil
14616 flip falafel
